target datalayout = "e-m:e-p270:32:32-p271:32:32-p272:64:64-i64:64-i128:128-f80:128-n8:16:32:64-S128"
target triple = "x86_64-pc-linux-gnu"

%struct._timelib_time = type { i64, i64, i64, i64, i64, i64, i64, i32, ptr, ptr, i32, %struct._timelib_rel_time, i64, i32, i32, i32, i32, i32, i32, i32, i32, i32 }
%struct._timelib_rel_time = type { i64, i64, i64, i64, i64, i64, i64, i32, i32, i32, i32, i64, %struct.anon, i32, i32 }
%struct.anon = type { i32, i64 }

; Function Attrs: nounwind uwtable
define hidden ptr @timelib_time_ctor() #0 {
  %1 = alloca ptr, align 8
  %2 = call noalias ptr @_ecalloc(i64 noundef 1, i64 noundef 240) #6
  store ptr %2, ptr %1, align 8
  %3 = load ptr, ptr %1, align 8
  ret ptr %3
}

; Function Attrs: nounwind uwtable
define hidden ptr @timelib_time_clone(ptr noundef %0) #0 {
  %2 = alloca ptr, align 8
  %3 = alloca ptr, align 8
  store ptr %0, ptr %2, align 8
  %4 = call ptr @timelib_time_ctor()
  store ptr %4, ptr %3, align 8
  %5 = load ptr, ptr %3, align 8
  %6 = load ptr, ptr %2, align 8
  call void @llvm.memcpy.p0.p0.i64(ptr align 8 %5, ptr align 8 %6, i64 240, i1 false)
  %7 = load ptr, ptr %2, align 8
  %8 = getelementptr inbounds %struct._timelib_time, ptr %7, i32 0, i32 8
  %9 = load ptr, ptr %8, align 8
  %10 = icmp ne ptr %9, null
  br i1 %10, label %11, label %18

11:                                               ; preds = %1
  %12 = load ptr, ptr %2, align 8
  %13 = getelementptr inbounds %struct._timelib_time, ptr %12, i32 0, i32 8
  %14 = load ptr, ptr %13, align 8
  %15 = call noalias ptr @_estrdup(ptr noundef %14)
  %16 = load ptr, ptr %3, align 8
  %17 = getelementptr inbounds %struct._timelib_time, ptr %16, i32 0, i32 8
  store ptr %15, ptr %17, align 8
  br label %18

18:                                               ; preds = %11, %1
  %19 = load ptr, ptr %2, align 8
  %20 = getelementptr inbounds %struct._timelib_time, ptr %19, i32 0, i32 9
  %21 = load ptr, ptr %20, align 8
  %22 = icmp ne ptr %21, null
  br i1 %22, label %23, label %29

23:                                               ; preds = %18
  %24 = load ptr, ptr %2, align 8
  %25 = getelementptr inbounds %struct._timelib_time, ptr %24, i32 0, i32 9
  %26 = load ptr, ptr %25, align 8
  %27 = load ptr, ptr %3, align 8
  %28 = getelementptr inbounds %struct._timelib_time, ptr %27, i32 0, i32 9
  store ptr %26, ptr %28, align 8
  br label %29

29:                                               ; preds = %23, %18
  %30 = load ptr, ptr %3, align 8
  ret ptr %30
}