; Function Attrs: nounwind uwtable
define hidden noalias noundef ptr @timelib_time_clone(ptr nocapture noundef readonly %0) local_unnamed_addr #1 {
  %2 = tail call noalias noundef dereferenceable_or_null(240) ptr @_ecalloc(i64 noundef 1, i64 noundef 240) #17
  tail call void @llvm.memcpy.p0.p0.i64(ptr noundef nonnull align 8 dereferenceable(240) %2, ptr noundef nonnull align 8 dereferenceable(240) %0, i64 240, i1 false)
  %3 = getelementptr inbounds i8, ptr %0, i64 64
  %4 = load ptr, ptr %3, align 8
  %.not = icmp eq ptr %4, null
  br i1 %.not, label %8, label %5

5:                                                ; preds = %1
  %6 = tail call noalias ptr @_estrdup(ptr noundef nonnull %4) #18
  %7 = getelementptr inbounds i8, ptr %2, i64 64
  store ptr %6, ptr %7, align 8
  br label %8

8:                                                ; preds = %5, %1
  %9 = getelementptr inbounds i8, ptr %0, i64 72
  %10 = load ptr, ptr %9, align 8
  %.not10 = icmp eq ptr %10, null
  br i1 %.not10, label %13, label %11

11:                                               ; preds = %8
  %12 = getelementptr inbounds i8, ptr %2, i64 72
  store ptr %10, ptr %12, align 8
  br label %13

13:                                               ; preds = %11, %8
  ret ptr %2
}